target datalayout = "e-m:e-p270:32:32-p271:32:32-p272:64:64-i64:64-i128:128-f80:128-n8:16:32:64-S128"
target triple = "x86_64-unknown-linux-gnu"

%struct.BlockDriverState = type { i32, i8, i8, i8, i8, i8, ptr, ptr, ptr, %struct.anon.0, i8, [4096 x i8], [4096 x i8], [4096 x i8], [16 x i8], ptr, [4096 x i8], %struct.BlockLimits, i32, i32, i32, i32, [32 x i8], %union.anon, %union.anon.1, %union.anon.2, i32, [16 x %struct.anon.3], ptr, %struct.anon.4, ptr, ptr, %struct.anon.5, ptr, ptr, i32, ptr, i64, i64, %struct.QemuMutex, %struct.anon.6, %struct.Stat64, i32, i32, i32, i32, i32, i32, %struct.QemuMutex, %struct.anon.7, %struct.CoQueue, i8, i32, i8, %struct.CoMutex, ptr, ptr }
%struct.anon.0 = type { ptr }
%struct.BlockLimits = type { i32, i64, i32, i64, i32, i32, i32, i64, i32, i64, i64, i32, i8, i32, i32, i32, i32, i32, i32, i32 }
%union.anon = type { %struct.QTailQLink }
%struct.QTailQLink = type { ptr, ptr }
%union.anon.1 = type { %struct.QTailQLink }
%union.anon.2 = type { %struct.QTailQLink }
%struct.anon.3 = type { ptr }
%struct.anon.4 = type { ptr }
%struct.anon.5 = type { ptr }
%struct.anon.6 = type { ptr }
%struct.Stat64 = type { i64 }
%struct.QemuMutex = type { %union.pthread_mutex_t, i8 }
%union.pthread_mutex_t = type { %struct.__pthread_mutex_s }
%struct.__pthread_mutex_s = type { i32, i32, i32, i32, i32, i16, i16, %struct.__pthread_internal_list }
%struct.__pthread_internal_list = type { ptr, ptr }
%struct.anon.7 = type { ptr }
%struct.CoQueue = type { %struct.anon.8 }
%struct.anon.8 = type { ptr, ptr }
%struct.CoMutex = type { i32, ptr, %struct.anon.9, %struct.anon.9, i32, i32, ptr }
%struct.anon.9 = type { ptr }
%struct.BlockDriver = type { ptr, i32, i8, i8, i8, i8, i8, i8, ptr, ptr, ptr, ptr, ptr, ptr, ptr, ptr, ptr, ptr, ptr, ptr, ptr, ptr, ptr, ptr, ptr, ptr, ptr, ptr, ptr, ptr, ptr, ptr, ptr, ptr, ptr, ptr, ptr, ptr, ptr, ptr, ptr, ptr, ptr, ptr, ptr, ptr, ptr, ptr, ptr, ptr, ptr, ptr, ptr, ptr, ptr, ptr, ptr, ptr, ptr, ptr, ptr, %struct.anon.10, ptr, ptr, ptr, ptr, ptr, ptr, ptr, ptr, ptr, ptr, ptr, ptr, ptr, ptr, ptr, ptr, ptr, ptr, ptr, ptr, ptr, ptr, ptr, ptr, ptr, ptr, ptr, ptr, ptr, ptr, ptr, ptr, ptr, ptr, ptr, ptr, ptr, ptr, ptr, ptr, ptr, ptr, ptr, ptr, ptr, ptr, ptr, ptr, ptr }
%struct.anon.10 = type { ptr, ptr }

@.str.17 = private unnamed_addr constant [13 x i8] c"coroutine_fn\00", section "llvm.metadata"
@.str.18 = private unnamed_addr constant [111 x i8] c"/home/dtcxzyw/WorkSpace/Projects/compilers/llvm-opt-benchmark/bench/qemu/qemu/include/block/block_int-common.h\00", section "llvm.metadata"

; Function Attrs: nounwind sspstrong uwtable
define dso_local i32 @bdrv_co_remove_persistent_dirty_bitmap(ptr noundef %bs, ptr noundef %name, ptr noundef %errp) #0 {
entry:
  %retval = alloca i32, align 4
  %bs.addr = alloca ptr, align 8
  %name.addr = alloca ptr, align 8
  %errp.addr = alloca ptr, align 8
  store ptr %bs, ptr %bs.addr, align 8
  store ptr %name, ptr %name.addr, align 8
  store ptr %errp, ptr %errp.addr, align 8
  call void @assert_bdrv_graph_readable()
  %0 = load ptr, ptr %bs.addr, align 8
  %drv = getelementptr inbounds %struct.BlockDriverState, ptr %0, i32 0, i32 6
  %1 = load ptr, ptr %drv, align 8
  %tobool = icmp ne ptr %1, null
  br i1 %tobool, label %land.lhs.true, label %if.end

land.lhs.true:                                    ; preds = %entry
  %2 = load ptr, ptr %bs.addr, align 8
  %drv1 = getelementptr inbounds %struct.BlockDriverState, ptr %2, i32 0, i32 6
  %3 = load ptr, ptr %drv1, align 8
  %bdrv_co_remove_persistent_dirty_bitmap = getelementptr inbounds %struct.BlockDriver, ptr %3, i32 0, i32 110
  %4 = call ptr @llvm.ptr.annotation.p0.p0(ptr %bdrv_co_remove_persistent_dirty_bitmap, ptr @.str.17, ptr @.str.18, i32 785, ptr null)
  %5 = load ptr, ptr %4, align 8
  %tobool2 = icmp ne ptr %5, null
  br i1 %tobool2, label %if.then, label %if.end

if.then:                                          ; preds = %land.lhs.true
  %6 = load ptr, ptr %bs.addr, align 8
  %drv3 = getelementptr inbounds %struct.BlockDriverState, ptr %6, i32 0, i32 6
  %7 = load ptr, ptr %drv3, align 8
  %bdrv_co_remove_persistent_dirty_bitmap4 = getelementptr inbounds %struct.BlockDriver, ptr %7, i32 0, i32 110
  %8 = call ptr @llvm.ptr.annotation.p0.p0(ptr %bdrv_co_remove_persistent_dirty_bitmap4, ptr @.str.17, ptr @.str.18, i32 785, ptr null)
  %9 = load ptr, ptr %8, align 8
  %10 = load ptr, ptr %bs.addr, align 8
  %11 = load ptr, ptr %name.addr, align 8
  %12 = load ptr, ptr %errp.addr, align 8
  %call = call i32 %9(ptr noundef %10, ptr noundef %11, ptr noundef %12)
  store i32 %call, ptr %retval, align 4
  br label %return

if.end:                                           ; preds = %land.lhs.true, %entry
  store i32 0, ptr %retval, align 4
  br label %return

return:                                           ; preds = %if.end, %if.then
  %13 = load i32, ptr %retval, align 4
  ret i32 %13
}