; Function Attrs: nounwind sspstrong uwtable
define dso_local i32 @bdrv_co_remove_persistent_dirty_bitmap(ptr noundef %bs, ptr noundef %name, ptr noundef %errp) #0 {
entry:
  tail call void @assert_bdrv_graph_readable() #14
  %drv = getelementptr inbounds nuw i8, ptr %bs, i64 16
  %0 = load ptr, ptr %drv, align 8
  %tobool.not = icmp eq ptr %0, null
  br i1 %tobool.not, label %return, label %land.lhs.true

land.lhs.true:                                    ; preds = %entry
  %bdrv_co_remove_persistent_dirty_bitmap = getelementptr inbounds nuw i8, ptr %0, i64 848
  %1 = tail call ptr @llvm.ptr.annotation.p0.p0(ptr nonnull %bdrv_co_remove_persistent_dirty_bitmap, ptr nonnull @.str.17, ptr nonnull @.str.18, i32 785, ptr null)
  %2 = load ptr, ptr %1, align 8
  %tobool2.not = icmp eq ptr %2, null
  br i1 %tobool2.not, label %return, label %if.then

if.then:                                          ; preds = %land.lhs.true
  %3 = tail call ptr @llvm.ptr.annotation.p0.p0(ptr nonnull %bdrv_co_remove_persistent_dirty_bitmap, ptr nonnull @.str.17, ptr nonnull @.str.18, i32 785, ptr null)
  %4 = load ptr, ptr %3, align 8
  %call = tail call i32 %4(ptr noundef nonnull %bs, ptr noundef %name, ptr noundef %errp) #14
  br label %return

return:                                           ; preds = %entry, %land.lhs.true, %if.then
  %retval.0 = phi i32 [ %call, %if.then ], [ 0, %land.lhs.true ], [ 0, %entry ]
  ret i32 %retval.0
}